target datalayout = "e-m:e-p270:32:32-p271:32:32-p272:64:64-i64:64-i128:128-f80:128-n8:16:32:64-S128"
target triple = "x86_64-pc-linux-gnu"

%struct.stats_t = type { double, double, double, i32, i32, i32 }

@stderr = external global ptr, align 8
@.str.143 = private unnamed_addr constant [75 x i8] c"%-6s  %-33s  %-25s  %11d  %9d  %9.3f  %9.3f  %9.3f  %9.3f  %17.3f  %15.3f\0A\00", align 1

; Function Attrs: nounwind uwtable
define internal void @print_stats(ptr noundef %0, ptr noundef %1, ptr noundef %2, ptr noundef %3, i32 noundef %4) #0 {
  %6 = alloca ptr, align 8
  %7 = alloca ptr, align 8
  %8 = alloca ptr, align 8
  %9 = alloca ptr, align 8
  %10 = alloca i32, align 4
  store ptr %0, ptr %6, align 8, !tbaa !4
  store ptr %1, ptr %7, align 8, !tbaa !10
  store ptr %2, ptr %8, align 8, !tbaa !10
  store ptr %3, ptr %9, align 8, !tbaa !10
  store i32 %4, ptr %10, align 4, !tbaa !8
  %11 = load i32, ptr %10, align 4, !tbaa !8
  %12 = icmp ne i32 %11, 0
  br i1 %12, label %13, label %70

13:                                               ; preds = %5
  %14 = load ptr, ptr @stderr, align 8, !tbaa !20
  %15 = load ptr, ptr %7, align 8, !tbaa !10
  %16 = load ptr, ptr %8, align 8, !tbaa !10
  %17 = load ptr, ptr %9, align 8, !tbaa !10
  %18 = load ptr, ptr %6, align 8, !tbaa !4
  %19 = getelementptr inbounds nuw %struct.stats_t, ptr %18, i32 0, i32 5
  %20 = load i32, ptr %19, align 8, !tbaa !68
  %21 = load ptr, ptr %6, align 8, !tbaa !4
  %22 = getelementptr inbounds nuw %struct.stats_t, ptr %21, i32 0, i32 4
  %23 = load i32, ptr %22, align 4, !tbaa !62
  %24 = add nsw i32 %20, %23
  %25 = load ptr, ptr %6, align 8, !tbaa !4
  %26 = getelementptr inbounds nuw %struct.stats_t, ptr %25, i32 0, i32 3
  %27 = load i32, ptr %26, align 8, !tbaa !56
  %28 = load ptr, ptr %6, align 8, !tbaa !4
  %29 = getelementptr inbounds nuw %struct.stats_t, ptr %28, i32 0, i32 1
  %30 = load double, ptr %29, align 8, !tbaa !65
  %31 = fmul double %30, 1.000000e+03
  %32 = load ptr, ptr %6, align 8, !tbaa !4
  %33 = getelementptr inbounds nuw %struct.stats_t, ptr %32, i32 0, i32 2
  %34 = load double, ptr %33, align 8, !tbaa !71
  %35 = fmul double %34, 1.000000e+03
  %36 = load ptr, ptr %6, align 8, !tbaa !4
  %37 = getelementptr inbounds nuw %struct.stats_t, ptr %36, i32 0, i32 4
  %38 = load i32, ptr %37, align 4, !tbaa !62
  %39 = sitofp i32 %38 to double
  %40 = load ptr, ptr %6, align 8, !tbaa !4
  %41 = getelementptr inbounds nuw %struct.stats_t, ptr %40, i32 0, i32 1
  %42 = load double, ptr %41, align 8, !tbaa !65
  %43 = fdiv double %39, %42
  %44 = fdiv double %43, 1.024000e+03
  %45 = fdiv double %44, 1.024000e+03
  %46 = load ptr, ptr %6, align 8, !tbaa !4
  %47 = getelementptr inbounds nuw %struct.stats_t, ptr %46, i32 0, i32 5
  %48 = load i32, ptr %47, align 8, !tbaa !68
  %49 = sitofp i32 %48 to double
  %50 = load ptr, ptr %6, align 8, !tbaa !4
  %51 = getelementptr inbounds nuw %struct.stats_t, ptr %50, i32 0, i32 2
  %52 = load double, ptr %51, align 8, !tbaa !71
  %53 = fdiv double %49, %52
  %54 = fdiv double %53, 1.024000e+03
  %55 = fdiv double %54, 1.024000e+03
  %56 = load ptr, ptr %6, align 8, !tbaa !4
  %57 = getelementptr inbounds nuw %struct.stats_t, ptr %56, i32 0, i32 0
  %58 = load double, ptr %57, align 8, !tbaa !59
  %59 = fmul double %58, 1.000000e+03
  %60 = load ptr, ptr %6, align 8, !tbaa !4
  %61 = getelementptr inbounds nuw %struct.stats_t, ptr %60, i32 0, i32 0
  %62 = load double, ptr %61, align 8, !tbaa !59
  %63 = fmul double %62, 1.000000e+03
  %64 = load ptr, ptr %6, align 8, !tbaa !4
  %65 = getelementptr inbounds nuw %struct.stats_t, ptr %64, i32 0, i32 3
  %66 = load i32, ptr %65, align 8, !tbaa !56
  %67 = sitofp i32 %66 to double
  %68 = fdiv double %63, %67
  %69 = call i32 (ptr, ptr, ...) @fprintf(ptr noundef %14, ptr noundef @.str.142, ptr noundef %15, ptr noundef %16, ptr noundef %17, i32 noundef %24, i32 noundef %27, double noundef %31, double noundef %35, double noundef %45, double noundef %55, double noundef %59, double noundef %68) #12
  br label %127

70:                                               ; preds = %5
  %71 = load ptr, ptr @stderr, align 8, !tbaa !20
  %72 = load ptr, ptr %7, align 8, !tbaa !10
  %73 = load ptr, ptr %8, align 8, !tbaa !10
  %74 = load ptr, ptr %9, align 8, !tbaa !10
  %75 = load ptr, ptr %6, align 8, !tbaa !4
  %76 = getelementptr inbounds nuw %struct.stats_t, ptr %75, i32 0, i32 5
  %77 = load i32, ptr %76, align 8, !tbaa !68
  %78 = load ptr, ptr %6, align 8, !tbaa !4
  %79 = getelementptr inbounds nuw %struct.stats_t, ptr %78, i32 0, i32 4
  %80 = load i32, ptr %79, align 4, !tbaa !62
  %81 = add nsw i32 %77, %80
  %82 = load ptr, ptr %6, align 8, !tbaa !4
  %83 = getelementptr inbounds nuw %struct.stats_t, ptr %82, i32 0, i32 3
  %84 = load i32, ptr %83, align 8, !tbaa !56
  %85 = load ptr, ptr %6, align 8, !tbaa !4
  %86 = getelementptr inbounds nuw %struct.stats_t, ptr %85, i32 0, i32 1
  %87 = load double, ptr %86, align 8, !tbaa !65
  %88 = fmul double %87, 1.000000e+03
  %89 = load ptr, ptr %6, align 8, !tbaa !4
  %90 = getelementptr inbounds nuw %struct.stats_t, ptr %89, i32 0, i32 2
  %91 = load double, ptr %90, align 8, !tbaa !71
  %92 = fmul double %91, 1.000000e+03
  %93 = load ptr, ptr %6, align 8, !tbaa !4
  %94 = getelementptr inbounds nuw %struct.stats_t, ptr %93, i32 0, i32 4
  %95 = load i32, ptr %94, align 4, !tbaa !62
  %96 = sitofp i32 %95 to double
  %97 = load ptr, ptr %6, align 8, !tbaa !4
  %98 = getelementptr inbounds nuw %struct.stats_t, ptr %97, i32 0, i32 1
  %99 = load double, ptr %98, align 8, !tbaa !65
  %100 = fdiv double %96, %99
  %101 = fdiv double %100, 1.024000e+03
  %102 = fdiv double %101, 1.024000e+03
  %103 = load ptr, ptr %6, align 8, !tbaa !4
  %104 = getelementptr inbounds nuw %struct.stats_t, ptr %103, i32 0, i32 5
  %105 = load i32, ptr %104, align 8, !tbaa !68
  %106 = sitofp i32 %105 to double
  %107 = load ptr, ptr %6, align 8, !tbaa !4
  %108 = getelementptr inbounds nuw %struct.stats_t, ptr %107, i32 0, i32 2
  %109 = load double, ptr %108, align 8, !tbaa !71
  %110 = fdiv double %106, %109
  %111 = fdiv double %110, 1.024000e+03
  %112 = fdiv double %111, 1.024000e+03
  %113 = load ptr, ptr %6, align 8, !tbaa !4
  %114 = getelementptr inbounds nuw %struct.stats_t, ptr %113, i32 0, i32 0
  %115 = load double, ptr %114, align 8, !tbaa !59
  %116 = fmul double %115, 1.000000e+03
  %117 = load ptr, ptr %6, align 8, !tbaa !4
  %118 = getelementptr inbounds nuw %struct.stats_t, ptr %117, i32 0, i32 0
  %119 = load double, ptr %118, align 8, !tbaa !59
  %120 = fmul double %119, 1.000000e+03
  %121 = load ptr, ptr %6, align 8, !tbaa !4
  %122 = getelementptr inbounds nuw %struct.stats_t, ptr %121, i32 0, i32 3
  %123 = load i32, ptr %122, align 8, !tbaa !56
  %124 = sitofp i32 %123 to double
  %125 = fdiv double %120, %124
  %126 = call i32 (ptr, ptr, ...) @fprintf(ptr noundef %71, ptr noundef @.str.143, ptr noundef %72, ptr noundef %73, ptr noundef %74, i32 noundef %81, i32 noundef %84, double noundef %88, double noundef %92, double noundef %102, double noundef %112, double noundef %116, double noundef %125) #12
  br label %127

127:                                              ; preds = %70, %13
  ret void
}