; Function Attrs: cold nofree nounwind uwtable
define internal fastcc void @print_stats(ptr noundef nonnull readonly captures(none) %0, ptr noundef %1, ptr noundef %2, ptr noundef %3, i32 noundef range(i32 0, 2) %4) unnamed_addr #3 {
  %.not = icmp eq i32 %4, 0
  %6 = load ptr, ptr @stderr, align 8, !tbaa !19
  %7 = getelementptr inbounds nuw i8, ptr %0, i64 32
  %8 = load i32, ptr %7, align 8, !tbaa !68
  %9 = getelementptr inbounds nuw i8, ptr %0, i64 28
  %10 = load i32, ptr %9, align 4, !tbaa !66
  %11 = add nsw i32 %10, %8
  %12 = getelementptr inbounds nuw i8, ptr %0, i64 24
  %13 = load i32, ptr %12, align 8, !tbaa !65
  %14 = getelementptr inbounds nuw i8, ptr %0, i64 8
  %15 = load double, ptr %14, align 8, !tbaa !67
  %16 = fmul double %15, 1.000000e+03
  %17 = getelementptr inbounds nuw i8, ptr %0, i64 16
  %18 = load double, ptr %17, align 8, !tbaa !69
  %19 = fmul double %18, 1.000000e+03
  %20 = sitofp i32 %10 to double
  %21 = fdiv double %20, %15
  %22 = fmul double %21, 0x3F50000000000000
  %23 = fmul double %22, 0x3F50000000000000
  %24 = sitofp i32 %8 to double
  %25 = fdiv double %24, %18
  %26 = fmul double %25, 0x3F50000000000000
  %27 = fmul double %26, 0x3F50000000000000
  %28 = load double, ptr %0, align 8, !tbaa !90
  %29 = fmul double %28, 1.000000e+03
  %30 = sitofp i32 %13 to double
  %31 = fdiv double %29, %30
  %.str.143..str.142 = select i1 %.not, ptr @.str.143, ptr @.str.142
  %32 = tail call i32 (ptr, ptr, ...) @fprintf(ptr noundef %6, ptr noundef nonnull %.str.143..str.142, ptr noundef %1, ptr noundef %2, ptr noundef %3, i32 noundef %11, i32 noundef %13, double noundef %16, double noundef %19, double noundef %23, double noundef %27, double noundef %29, double noundef %31) #18
  ret void
}